; Function Attrs: mustprogress uwtable
define dso_local noundef zeroext i1 @_ZN20cmCTestScriptHandler17WriteInitialCacheERKNSt7__cxx1112basic_stringIcSt11char_traitsIcESaIcEEES7_(ptr noundef nonnull align 8 dereferenceable(32) %0, ptr noundef nonnull align 8 dereferenceable(32) %1) local_unnamed_addr #3 align 2 personality ptr @__gxx_personality_v0 {
  %3 = alloca [2 x %"struct.std::pair.779"], align 8
  %4 = alloca %"class.std::__cxx11::basic_string", align 8
  %5 = alloca %class.cmGeneratedFileStream, align 8
  call void @llvm.lifetime.start.p0(i64 48, ptr nonnull %3)
  %6 = tail call { i64, ptr } @_ZNKSt7__cxx1112basic_stringIcSt11char_traitsIcESaIcEEcvSt17basic_string_viewIcS2_EEv(ptr noundef nonnull align 8 dereferenceable(32) %0) #20, !noalias !156
  %7 = extractvalue { i64, ptr } %6, 0
  %8 = extractvalue { i64, ptr } %6, 1
  store i64 %7, ptr %3, align 8, !alias.scope !159, !noalias !156
  %.sroa.2.0..sroa_idx.i.i = getelementptr inbounds i8, ptr %3, i64 8
  store ptr %8, ptr %.sroa.2.0..sroa_idx.i.i, align 8, !alias.scope !159, !noalias !156
  %9 = getelementptr inbounds i8, ptr %3, i64 16
  store ptr null, ptr %9, align 8, !alias.scope !159, !noalias !156
  %10 = getelementptr inbounds i8, ptr %3, i64 24
  store i64 15, ptr %10, align 8, !alias.scope !162, !noalias !156
  %.sroa.2.0..sroa_idx.i6.i = getelementptr inbounds i8, ptr %3, i64 32
  store ptr @.str.85, ptr %.sroa.2.0..sroa_idx.i6.i, align 8, !alias.scope !162, !noalias !156
  %11 = getelementptr inbounds i8, ptr %3, i64 40
  store ptr null, ptr %11, align 8, !alias.scope !162, !noalias !156
  call void @_Z10cmCatViewsSt16initializer_listISt4pairISt17basic_string_viewIcSt11char_traitsIcEEPNSt7__cxx1112basic_stringIcS3_SaIcEEEEE(ptr dead_on_unwind nonnull writable sret(%"class.std::__cxx11::basic_string") align 8 %4, ptr nonnull %3, i64 2)
  call void @llvm.lifetime.end.p0(i64 48, ptr nonnull %3)
  invoke void @_ZN21cmGeneratedFileStreamC1ERKNSt7__cxx1112basic_stringIcSt11char_traitsIcESaIcEEEb16codecvt_Encoding(ptr noundef nonnull align 8 dereferenceable(348) %5, ptr noundef nonnull align 8 dereferenceable(32) %4, i1 noundef zeroext false, i32 noundef 0)
          to label %12 unwind label %19

12:                                               ; preds = %2
  %13 = load ptr, ptr %5, align 8
  %14 = getelementptr i8, ptr %13, i64 -24
  %15 = load i64, ptr %14, align 8
  %16 = getelementptr inbounds i8, ptr %5, i64 %15
  %17 = invoke noundef zeroext i1 @_ZNKSt9basic_iosIcSt11char_traitsIcEEntEv(ptr noundef nonnull align 8 dereferenceable(264) %16)
          to label %18 unwind label %21

18:                                               ; preds = %12
  br i1 %17, label %30, label %23

19:                                               ; preds = %2
  %20 = landingpad { ptr, i32 }
          cleanup
  br label %31

21:                                               ; preds = %29, %27, %23, %12
  %22 = landingpad { ptr, i32 }
          cleanup
  call void @_ZN21cmGeneratedFileStreamD1Ev(ptr noundef nonnull align 8 dereferenceable(348) %5) #20
  br label %31

23:                                               ; preds = %18
  %24 = call noundef ptr @_ZNKSt7__cxx1112basic_stringIcSt11char_traitsIcESaIcEE4dataEv(ptr noundef nonnull align 8 dereferenceable(32) %1) #20
  %25 = call noundef i64 @_ZNKSt7__cxx1112basic_stringIcSt11char_traitsIcESaIcEE4sizeEv(ptr noundef nonnull align 8 dereferenceable(32) %1) #20
  %26 = invoke noundef nonnull align 8 dereferenceable(8) ptr @_ZNSo5writeEPKcl(ptr noundef nonnull align 8 dereferenceable(8) %5, ptr noundef %24, i64 noundef %25)
          to label %27 unwind label %21

27:                                               ; preds = %23
  %28 = invoke noundef nonnull align 8 dereferenceable(8) ptr @_ZNSo5flushEv(ptr noundef nonnull align 8 dereferenceable(8) %5)
          to label %29 unwind label %21

29:                                               ; preds = %27
  invoke void @_ZNSt14basic_ofstreamIcSt11char_traitsIcEE5closeEv(ptr noundef nonnull align 8 dereferenceable(248) %5)
          to label %30 unwind label %21

30:                                               ; preds = %29, %18
  %.06 = xor i1 %17, true
  call void @_ZN21cmGeneratedFileStreamD1Ev(ptr noundef nonnull align 8 dereferenceable(348) %5) #20
  call void @_ZNSt7__cxx1112basic_stringIcSt11char_traitsIcESaIcEED1Ev(ptr noundef nonnull align 8 dereferenceable(32) %4) #20
  ret i1 %.06

31:                                               ; preds = %21, %19
  %.pn = phi { ptr, i32 } [ %22, %21 ], [ %20, %19 ]
  call void @_ZNSt7__cxx1112basic_stringIcSt11char_traitsIcESaIcEED1Ev(ptr noundef nonnull align 8 dereferenceable(32) %4) #20
  resume { ptr, i32 } %.pn
}